; Function Attrs: mustprogress nounwind uwtable
define hidden void @_ZN5clang7targets19DarwinARMTargetInfoC2ERKN4llvm6TripleERKNS_13TargetOptionsE(ptr noundef nonnull align 8 dereferenceable(624) %0, ptr noundef nonnull align 8 dereferenceable(56) %1, ptr noundef nonnull align 8 dereferenceable(536) %2) unnamed_addr #0 align 2 {
  tail call void @_ZN5clang7targets16DarwinTargetInfoINS0_15ARMleTargetInfoEEC2ERKN4llvm6TripleERKNS_13TargetOptionsE(ptr noundef nonnull align 8 dereferenceable(624) %0, ptr noundef nonnull align 8 dereferenceable(56) %1, ptr noundef nonnull align 8 dereferenceable(536) %2)
  store ptr getelementptr inbounds inrange(-16, 976) (i8, ptr @_ZTVN5clang7targets19DarwinARMTargetInfoE, i64 16), ptr %0, align 8
  %4 = getelementptr inbounds nuw i8, ptr %0, i64 384
  %5 = load i32, ptr %4, align 8
  %6 = or i32 %5, 1
  store i32 %6, ptr %4, align 8
  %7 = getelementptr inbounds nuw i8, ptr %1, i64 36
  %8 = load i32, ptr %7, align 4
  %9 = icmp eq i32 %8, 25
  br i1 %9, label %10, label %14

10:                                               ; preds = %3
  %11 = getelementptr inbounds i8, ptr %0, i64 184
  %12 = load i8, ptr %11, align 8
  %13 = and i8 %12, -2
  store i8 %13, ptr %11, align 8
  br label %14

14:                                               ; preds = %3, %10
  %.sink = phi i32 [ 4, %10 ], [ 2, %3 ]
  %15 = getelementptr inbounds nuw i8, ptr %0, i64 340
  store i32 %.sink, ptr %15, align 4
  ret void
}